target datalayout = "e-m:e-p270:32:32-p271:32:32-p272:64:64-i64:64-i128:128-f80:128-n8:16:32:64-S128"
target triple = "x86_64-pc-linux-gnu"

%struct.Symbol = type { %union.anon, i64 }
%union.anon = type { i64 }
%struct.SymbolTable = type <{ [65536 x i16], [256 x i16], [512 x %struct.Symbol], [1024 x %struct.Symbol], i16, i16, i16, i8, i8, [9 x i16], [6 x i8] }>
%"class.std::shared_ptr" = type { %"class.std::__shared_ptr" }
%"class.std::__shared_ptr" = type { ptr, %"class.std::__shared_count" }
%"class.std::__shared_count" = type { ptr }
%struct.Encoder = type { %"class.std::shared_ptr", %union.anon.9 }
%union.anon.9 = type { [1572864 x i8] }

; Function Attrs: mustprogress nounwind uwtable
define linkonce_odr hidden noundef ptr @_ZNKSt12__shared_ptrI11SymbolTableLN9__gnu_cxx12_Lock_policyE2EE3getEv(ptr noundef nonnull align 8 dereferenceable(16) %0) #5 comdat align 2 {
  %2 = alloca ptr, align 8
  store ptr %0, ptr %2, align 8, !tbaa !296
  %3 = load ptr, ptr %2, align 8
  %4 = getelementptr inbounds nuw %"class.std::__shared_ptr", ptr %3, i32 0, i32 0
  %5 = load ptr, ptr %4, align 8, !tbaa !298
  ret ptr %5
}

; Function Attrs: mustprogress nounwind uwtable
define linkonce_odr hidden noundef ptr @_ZNKSt19__shared_ptr_accessI11SymbolTableLN9__gnu_cxx12_Lock_policyE2ELb0ELb0EE6_M_getEv(ptr noundef nonnull align 1 dereferenceable(1) %0) #5 comdat align 2 {
  %2 = alloca ptr, align 8
  store ptr %0, ptr %2, align 8, !tbaa !106
  %3 = load ptr, ptr %2, align 8
  %4 = call noundef ptr @_ZNKSt12__shared_ptrI11SymbolTableLN9__gnu_cxx12_Lock_policyE2EE3getEv(ptr noundef nonnull align 8 dereferenceable(16) %3) #3
  ret ptr %4
}

; Function Attrs: mustprogress nounwind uwtable
define linkonce_odr hidden noundef ptr @_ZNKSt19__shared_ptr_accessI11SymbolTableLN9__gnu_cxx12_Lock_policyE2ELb0ELb0EEptEv(ptr noundef nonnull align 1 dereferenceable(1) %0) #5 comdat align 2 {
  %2 = alloca ptr, align 8
  store ptr %0, ptr %2, align 8, !tbaa !106
  %3 = load ptr, ptr %2, align 8
  %4 = call noundef ptr @_ZNKSt19__shared_ptr_accessI11SymbolTableLN9__gnu_cxx12_Lock_policyE2ELb0ELb0EE6_M_getEv(ptr noundef nonnull align 1 dereferenceable(1) %3) #3
  ret ptr %4
}

; Function Attrs: inlinehint mustprogress uwtable
define linkonce_odr hidden noundef i64 @_Z13_compressAutoP7EncodermPmPPhmS2_S1_S3_i(ptr noundef %0, i64 noundef %1, ptr noundef %2, ptr noundef %3, i64 noundef %4, ptr noundef %5, ptr noundef %6, ptr noundef %7, i32 noundef %8) #7 comdat {
  %10 = alloca ptr, align 8
  %11 = alloca i64, align 8
  %12 = alloca ptr, align 8
  %13 = alloca ptr, align 8
  %14 = alloca i64, align 8
  %15 = alloca ptr, align 8
  %16 = alloca ptr, align 8
  %17 = alloca ptr, align 8
  %18 = alloca i32, align 4
  %19 = alloca i8, align 1
  %20 = alloca i8, align 1
  store ptr %0, ptr %10, align 8, !tbaa !99
  store i64 %1, ptr %11, align 8, !tbaa !32
  store ptr %2, ptr %12, align 8, !tbaa !26
  store ptr %3, ptr %13, align 8, !tbaa !83
  store i64 %4, ptr %14, align 8, !tbaa !32
  store ptr %5, ptr %15, align 8, !tbaa !38
  store ptr %6, ptr %16, align 8, !tbaa !26
  store ptr %7, ptr %17, align 8, !tbaa !83
  store i32 %8, ptr %18, align 4, !tbaa !3
  call void @llvm.lifetime.start.p0(i64 1, ptr %19) #3
  store i8 0, ptr %19, align 1, !tbaa !28
  call void @llvm.lifetime.start.p0(i64 1, ptr %20) #3
  store i8 0, ptr %20, align 1, !tbaa !28
  %21 = load ptr, ptr %10, align 8, !tbaa !99
  %22 = getelementptr inbounds nuw %struct.Encoder, ptr %21, i32 0, i32 0
  %23 = call noundef ptr @_ZNKSt19__shared_ptr_accessI11SymbolTableLN9__gnu_cxx12_Lock_policyE2ELb0ELb0EEptEv(ptr noundef nonnull align 1 dereferenceable(1) %22) #3
  %24 = getelementptr inbounds nuw %struct.SymbolTable, ptr %23, i32 0, i32 9
  %25 = getelementptr inbounds [9 x i16], ptr %24, i64 0, i64 1
  %26 = load i16, ptr %25, align 2, !tbaa !14
  %27 = zext i16 %26 to i32
  %28 = mul nsw i32 100, %27
  %29 = load ptr, ptr %10, align 8, !tbaa !99
  %30 = getelementptr inbounds nuw %struct.Encoder, ptr %29, i32 0, i32 0
  %31 = call noundef ptr @_ZNKSt19__shared_ptr_accessI11SymbolTableLN9__gnu_cxx12_Lock_policyE2ELb0ELb0EEptEv(ptr noundef nonnull align 1 dereferenceable(1) %30) #3
  %32 = getelementptr inbounds nuw %struct.SymbolTable, ptr %31, i32 0, i32 4
  %33 = load i16, ptr %32, align 8, !tbaa !48
  %34 = zext i16 %33 to i32
  %35 = mul nsw i32 65, %34
  %36 = icmp sgt i32 %28, %35
  br i1 %36, label %37, label %55

37:                                               ; preds = %9
  %38 = load ptr, ptr %10, align 8, !tbaa !99
  %39 = getelementptr inbounds nuw %struct.Encoder, ptr %38, i32 0, i32 0
  %40 = call noundef ptr @_ZNKSt19__shared_ptr_accessI11SymbolTableLN9__gnu_cxx12_Lock_policyE2ELb0ELb0EEptEv(ptr noundef nonnull align 1 dereferenceable(1) %39) #3
  %41 = getelementptr inbounds nuw %struct.SymbolTable, ptr %40, i32 0, i32 5
  %42 = load i16, ptr %41, align 2, !tbaa !49
  %43 = zext i16 %42 to i32
  %44 = mul nsw i32 100, %43
  %45 = load ptr, ptr %10, align 8, !tbaa !99
  %46 = getelementptr inbounds nuw %struct.Encoder, ptr %45, i32 0, i32 0
  %47 = call noundef ptr @_ZNKSt19__shared_ptr_accessI11SymbolTableLN9__gnu_cxx12_Lock_policyE2ELb0ELb0EEptEv(ptr noundef nonnull align 1 dereferenceable(1) %46) #3
  %48 = getelementptr inbounds nuw %struct.SymbolTable, ptr %47, i32 0, i32 9
  %49 = getelementptr inbounds [9 x i16], ptr %48, i64 0, i64 1
  %50 = load i16, ptr %49, align 2, !tbaa !14
  %51 = zext i16 %50 to i32
  %52 = mul nsw i32 95, %51
  %53 = icmp sgt i32 %44, %52
  br i1 %53, label %54, label %55

54:                                               ; preds = %37
  store i8 1, ptr %20, align 1, !tbaa !28
  br label %119

55:                                               ; preds = %37, %9
  %56 = load ptr, ptr %10, align 8, !tbaa !99
  %57 = getelementptr inbounds nuw %struct.Encoder, ptr %56, i32 0, i32 0
  %58 = call noundef ptr @_ZNKSt19__shared_ptr_accessI11SymbolTableLN9__gnu_cxx12_Lock_policyE2ELb0ELb0EEptEv(ptr noundef nonnull align 1 dereferenceable(1) %57) #3
  %59 = getelementptr inbounds nuw %struct.SymbolTable, ptr %58, i32 0, i32 9
  %60 = getelementptr inbounds [9 x i16], ptr %59, i64 0, i64 0
  %61 = load i16, ptr %60, align 8, !tbaa !14
  %62 = zext i16 %61 to i32
  %63 = icmp sgt i32 %62, 24
  br i1 %63, label %64, label %118

64:                                               ; preds = %55
  %65 = load ptr, ptr %10, align 8, !tbaa !99
  %66 = getelementptr inbounds nuw %struct.Encoder, ptr %65, i32 0, i32 0
  %67 = call noundef ptr @_ZNKSt19__shared_ptr_accessI11SymbolTableLN9__gnu_cxx12_Lock_policyE2ELb0ELb0EEptEv(ptr noundef nonnull align 1 dereferenceable(1) %66) #3
  %68 = getelementptr inbounds nuw %struct.SymbolTable, ptr %67, i32 0, i32 9
  %69 = getelementptr inbounds [9 x i16], ptr %68, i64 0, i64 0
  %70 = load i16, ptr %69, align 8, !tbaa !14
  %71 = zext i16 %70 to i32
  %72 = icmp slt i32 %71, 92
  br i1 %72, label %73, label %118

73:                                               ; preds = %64
  %74 = load ptr, ptr %10, align 8, !tbaa !99
  %75 = getelementptr inbounds nuw %struct.Encoder, ptr %74, i32 0, i32 0
  %76 = call noundef ptr @_ZNKSt19__shared_ptr_accessI11SymbolTableLN9__gnu_cxx12_Lock_policyE2ELb0ELb0EEptEv(ptr noundef nonnull align 1 dereferenceable(1) %75) #3
  %77 = getelementptr inbounds nuw %struct.SymbolTable, ptr %76, i32 0, i32 9
  %78 = getelementptr inbounds [9 x i16], ptr %77, i64 0, i64 0
  %79 = load i16, ptr %78, align 8, !tbaa !14
  %80 = zext i16 %79 to i32
  %81 = icmp slt i32 %80, 43
  br i1 %81, label %99, label %82

82:                                               ; preds = %73
  %83 = load ptr, ptr %10, align 8, !tbaa !99
  %84 = getelementptr inbounds nuw %struct.Encoder, ptr %83, i32 0, i32 0
  %85 = call noundef ptr @_ZNKSt19__shared_ptr_accessI11SymbolTableLN9__gnu_cxx12_Lock_policyE2ELb0ELb0EEptEv(ptr noundef nonnull align 1 dereferenceable(1) %84) #3
  %86 = getelementptr inbounds nuw %struct.SymbolTable, ptr %85, i32 0, i32 9
  %87 = getelementptr inbounds [9 x i16], ptr %86, i64 0, i64 6
  %88 = load i16, ptr %87, align 4, !tbaa !14
  %89 = zext i16 %88 to i32
  %90 = load ptr, ptr %10, align 8, !tbaa !99
  %91 = getelementptr inbounds nuw %struct.Encoder, ptr %90, i32 0, i32 0
  %92 = call noundef ptr @_ZNKSt19__shared_ptr_accessI11SymbolTableLN9__gnu_cxx12_Lock_policyE2ELb0ELb0EEptEv(ptr noundef nonnull align 1 dereferenceable(1) %91) #3
  %93 = getelementptr inbounds nuw %struct.SymbolTable, ptr %92, i32 0, i32 9
  %94 = getelementptr inbounds [9 x i16], ptr %93, i64 0, i64 7
  %95 = load i16, ptr %94, align 2, !tbaa !14
  %96 = zext i16 %95 to i32
  %97 = add nsw i32 %89, %96
  %98 = icmp slt i32 %97, 29
  br i1 %98, label %99, label %118

99:                                               ; preds = %82, %73
  %100 = load ptr, ptr %10, align 8, !tbaa !99
  %101 = getelementptr inbounds nuw %struct.Encoder, ptr %100, i32 0, i32 0
  %102 = call noundef ptr @_ZNKSt19__shared_ptr_accessI11SymbolTableLN9__gnu_cxx12_Lock_policyE2ELb0ELb0EEptEv(ptr noundef nonnull align 1 dereferenceable(1) %101) #3
  %103 = getelementptr inbounds nuw %struct.SymbolTable, ptr %102, i32 0, i32 9
  %104 = getelementptr inbounds [9 x i16], ptr %103, i64 0, i64 0
  %105 = load i16, ptr %104, align 8, !tbaa !14
  %106 = zext i16 %105 to i32
  %107 = icmp slt i32 %106, 72
  br i1 %107, label %117, label %108

108:                                              ; preds = %99
  %109 = load ptr, ptr %10, align 8, !tbaa !99
  %110 = getelementptr inbounds nuw %struct.Encoder, ptr %109, i32 0, i32 0
  %111 = call noundef ptr @_ZNKSt19__shared_ptr_accessI11SymbolTableLN9__gnu_cxx12_Lock_policyE2ELb0ELb0EEptEv(ptr noundef nonnull align 1 dereferenceable(1) %110) #3
  %112 = getelementptr inbounds nuw %struct.SymbolTable, ptr %111, i32 0, i32 9
  %113 = getelementptr inbounds [9 x i16], ptr %112, i64 0, i64 2
  %114 = load i16, ptr %113, align 4, !tbaa !14
  %115 = zext i16 %114 to i32
  %116 = icmp slt i32 %115, 72
  br i1 %116, label %117, label %118

117:                                              ; preds = %108, %99
  store i8 1, ptr %19, align 1, !tbaa !28
  br label %118

118:                                              ; preds = %117, %108, %82, %64, %55
  br label %119

119:                                              ; preds = %118, %54
  %120 = load ptr, ptr %10, align 8, !tbaa !99
  %121 = load i64, ptr %11, align 8, !tbaa !32
  %122 = load ptr, ptr %12, align 8, !tbaa !26
  %123 = load ptr, ptr %13, align 8, !tbaa !83
  %124 = load i64, ptr %14, align 8, !tbaa !32
  %125 = load ptr, ptr %15, align 8, !tbaa !38
  %126 = load ptr, ptr %16, align 8, !tbaa !26
  %127 = load ptr, ptr %17, align 8, !tbaa !83
  %128 = load i8, ptr %20, align 1, !tbaa !28, !range !33, !noundef !34
  %129 = trunc i8 %128 to i1
  %130 = load i8, ptr %19, align 1, !tbaa !28, !range !33, !noundef !34
  %131 = trunc i8 %130 to i1
  %132 = load i32, ptr %18, align 4, !tbaa !3
  %133 = call noundef i64 @_Z13_compressImplP7EncodermPmPPhmS2_S1_S3_bbi(ptr noundef %120, i64 noundef %121, ptr noundef %122, ptr noundef %123, i64 noundef %124, ptr noundef %125, ptr noundef %126, ptr noundef %127, i1 noundef zeroext %129, i1 noundef zeroext %131, i32 noundef %132)
  call void @llvm.lifetime.end.p0(i64 1, ptr %20) #3
  call void @llvm.lifetime.end.p0(i64 1, ptr %19) #3
  ret i64 %133
}

; Function Attrs: mustprogress uwtable
define hidden noundef i64 @_Z12compressAutoP7EncodermPmPPhmS2_S1_S3_i(ptr noundef %0, i64 noundef %1, ptr noundef %2, ptr noundef %3, i64 noundef %4, ptr noundef %5, ptr noundef %6, ptr noundef %7, i32 noundef %8) #4 {
  %10 = alloca ptr, align 8
  %11 = alloca i64, align 8
  %12 = alloca ptr, align 8
  %13 = alloca ptr, align 8
  %14 = alloca i64, align 8
  %15 = alloca ptr, align 8
  %16 = alloca ptr, align 8
  %17 = alloca ptr, align 8
  %18 = alloca i32, align 4
  store ptr %0, ptr %10, align 8, !tbaa !99
  store i64 %1, ptr %11, align 8, !tbaa !32
  store ptr %2, ptr %12, align 8, !tbaa !26
  store ptr %3, ptr %13, align 8, !tbaa !83
  store i64 %4, ptr %14, align 8, !tbaa !32
  store ptr %5, ptr %15, align 8, !tbaa !38
  store ptr %6, ptr %16, align 8, !tbaa !26
  store ptr %7, ptr %17, align 8, !tbaa !83
  store i32 %8, ptr %18, align 4, !tbaa !3
  %19 = load ptr, ptr %10, align 8, !tbaa !99
  %20 = load i64, ptr %11, align 8, !tbaa !32
  %21 = load ptr, ptr %12, align 8, !tbaa !26
  %22 = load ptr, ptr %13, align 8, !tbaa !83
  %23 = load i64, ptr %14, align 8, !tbaa !32
  %24 = load ptr, ptr %15, align 8, !tbaa !38
  %25 = load ptr, ptr %16, align 8, !tbaa !26
  %26 = load ptr, ptr %17, align 8, !tbaa !83
  %27 = load i32, ptr %18, align 4, !tbaa !3
  %28 = call noundef i64 @_Z13_compressAutoP7EncodermPmPPhmS2_S1_S3_i(ptr noundef %19, i64 noundef %20, ptr noundef %21, ptr noundef %22, i64 noundef %23, ptr noundef %24, ptr noundef %25, ptr noundef %26, i32 noundef %27)
  ret i64 %28
}