; Function Attrs: mustprogress uwtable
define hidden noundef i64 @_Z12compressAutoP7EncodermPmPPhmS2_S1_S3_i(ptr noundef %0, i64 noundef %1, ptr noundef %2, ptr noundef %3, i64 noundef %4, ptr noundef %5, ptr noundef %6, ptr noundef %7, i32 noundef %8) local_unnamed_addr #5 {
  %10 = load ptr, ptr %0, align 8, !tbaa !110
  %11 = getelementptr inbounds nuw i8, ptr %10, i64 156170
  %12 = load i16, ptr %11, align 2, !tbaa !34
  %13 = zext i16 %12 to i32
  %14 = mul nuw nsw i32 %13, 100
  %15 = getelementptr inbounds nuw i8, ptr %10, i64 156160
  %16 = load i16, ptr %15, align 8, !tbaa !60
  %17 = zext i16 %16 to i32
  %18 = mul nuw nsw i32 %17, 65
  %19 = icmp samesign ugt i32 %14, %18
  br i1 %19, label %20, label %27

20:                                               ; preds = %9
  %21 = getelementptr inbounds nuw i8, ptr %10, i64 156162
  %22 = load i16, ptr %21, align 2, !tbaa !24
  %23 = zext i16 %22 to i32
  %24 = mul nuw nsw i32 %23, 100
  %25 = mul nuw nsw i32 %13, 95
  %26 = icmp samesign ugt i32 %24, %25
  br i1 %26, label %_Z13_compressAutoP7EncodermPmPPhmS2_S1_S3_i.exit, label %27

27:                                               ; preds = %20, %9
  %28 = getelementptr inbounds nuw i8, ptr %10, i64 156168
  %29 = load i16, ptr %28, align 8, !tbaa !34
  %30 = add i16 %29, -25
  %or.cond.i = icmp ult i16 %30, 67
  br i1 %or.cond.i, label %31, label %_Z13_compressAutoP7EncodermPmPPhmS2_S1_S3_i.exit

31:                                               ; preds = %27
  %32 = icmp samesign ult i16 %29, 43
  br i1 %32, label %.thread.i, label %33

33:                                               ; preds = %31
  %34 = getelementptr inbounds nuw i8, ptr %10, i64 156180
  %35 = load i16, ptr %34, align 4, !tbaa !34
  %36 = zext i16 %35 to i32
  %37 = getelementptr inbounds nuw i8, ptr %10, i64 156182
  %38 = load i16, ptr %37, align 2, !tbaa !34
  %39 = zext i16 %38 to i32
  %40 = add nuw nsw i32 %39, %36
  %41 = icmp samesign ult i32 %40, 29
  br i1 %41, label %42, label %_Z13_compressAutoP7EncodermPmPPhmS2_S1_S3_i.exit

42:                                               ; preds = %33
  %43 = icmp samesign ult i16 %29, 72
  br i1 %43, label %.thread.i, label %44

44:                                               ; preds = %42
  %45 = getelementptr inbounds nuw i8, ptr %10, i64 156172
  %46 = load i16, ptr %45, align 4, !tbaa !34
  %47 = icmp ult i16 %46, 72
  br i1 %47, label %.thread.i, label %_Z13_compressAutoP7EncodermPmPPhmS2_S1_S3_i.exit

.thread.i:                                        ; preds = %44, %42, %31
  br label %_Z13_compressAutoP7EncodermPmPPhmS2_S1_S3_i.exit

_Z13_compressAutoP7EncodermPmPPhmS2_S1_S3_i.exit: ; preds = %20, %27, %33, %44, %.thread.i
  %.021.i = phi i1 [ true, %.thread.i ], [ false, %44 ], [ false, %33 ], [ false, %27 ], [ false, %20 ]
  %.0.i = phi i1 [ false, %.thread.i ], [ false, %44 ], [ false, %33 ], [ false, %27 ], [ true, %20 ]
  %48 = tail call noundef i64 @_Z13_compressImplP7EncodermPmPPhmS2_S1_S3_bbi(ptr noundef nonnull %0, i64 noundef %1, ptr noundef %2, ptr noundef %3, i64 noundef %4, ptr noundef %5, ptr noundef %6, ptr noundef %7, i1 noundef zeroext %.0.i, i1 noundef zeroext %.021.i, i32 noundef %8)
  ret i64 %48
}